; Function Attrs: mustprogress nofree norecurse nosync nounwind willreturn memory(read, inaccessiblemem: none) uwtable
define hidden range(i32 1, 257) i32 @_PyInstruction_GetLength(ptr noundef readonly captures(none) %0, i32 noundef %1) local_unnamed_addr #0 {
  %3 = getelementptr inbounds nuw i8, ptr %0, i64 208
  %4 = sext i32 %1 to i64
  %5 = getelementptr %union._Py_CODEUNIT, ptr %3, i64 %4
  %6 = load i16, ptr %5, align 2, !tbaa !4
  %.sroa.7.0.extract.shift.i = lshr i16 %6, 8
  %7 = and i16 %6, 255
  %8 = icmp samesign ult i16 %7, 235
  br i1 %8, label %9, label %11

9:                                                ; preds = %2
  %10 = zext nneg i16 %7 to i64
  br label %_Py_GetBaseCodeUnit.exit.sink.split

11:                                               ; preds = %2
  %12 = zext nneg i16 %7 to i32
  %trunc.i = trunc i16 %6 to i8
  switch i8 %trunc.i, label %36 [
    i8 -1, label %13
    i8 -2, label %23
  ]

13:                                               ; preds = %11
  %14 = getelementptr inbounds nuw i8, ptr %0, i64 152
  %15 = load ptr, ptr %14, align 8, !tbaa !8
  %16 = getelementptr inbounds nuw i8, ptr %15, i64 8
  %17 = zext nneg i16 %.sroa.7.0.extract.shift.i to i64
  %18 = getelementptr [1 x ptr], ptr %16, i64 0, i64 %17
  %19 = load ptr, ptr %18, align 8, !tbaa !17
  %20 = getelementptr inbounds nuw i8, ptr %19, i64 32
  %21 = load i8, ptr %20, align 8, !tbaa !19
  %22 = zext i8 %21 to i64
  br label %_Py_GetBaseCodeUnit.exit.sink.split

23:                                               ; preds = %11
  %24 = getelementptr inbounds nuw i8, ptr %0, i64 176
  %25 = load ptr, ptr %24, align 8, !tbaa !26
  %26 = getelementptr inbounds nuw i8, ptr %25, i64 96
  %27 = load ptr, ptr %26, align 8, !tbaa !27
  %28 = getelementptr inbounds nuw i8, ptr %27, i64 1
  %29 = load i8, ptr %27, align 1, !tbaa !31
  %30 = zext i8 %29 to i32
  %31 = mul i32 %1, %30
  %32 = sext i32 %31 to i64
  %33 = getelementptr [1 x i8], ptr %28, i64 0, i64 %32
  %34 = load i8, ptr %33, align 1, !tbaa !33
  %35 = zext i8 %34 to i32
  br label %36

36:                                               ; preds = %23, %11
  %.0.i = phi i32 [ %35, %23 ], [ %12, %11 ]
  %37 = icmp eq i32 %.0.i, 239
  br i1 %37, label %38, label %46

38:                                               ; preds = %36
  %39 = getelementptr inbounds nuw i8, ptr %0, i64 176
  %40 = load ptr, ptr %39, align 8, !tbaa !26
  %41 = getelementptr inbounds nuw i8, ptr %40, i64 112
  %42 = load ptr, ptr %41, align 8, !tbaa !34
  %43 = getelementptr i8, ptr %42, i64 %4
  %44 = load i8, ptr %43, align 1, !tbaa !33
  %45 = zext i8 %44 to i32
  br label %46

46:                                               ; preds = %38, %36
  %.1.i = phi i32 [ %45, %38 ], [ %.0.i, %36 ]
  %47 = zext nneg i32 %.1.i to i64
  %48 = getelementptr [256 x i8], ptr @DE_INSTRUMENT, i64 0, i64 %47
  %49 = load i8, ptr %48, align 1, !tbaa !33
  %.not.i = icmp eq i8 %49, 0
  br i1 %.not.i, label %_Py_GetBaseCodeUnit.exit.sink.split, label %_Py_GetBaseCodeUnit.exit

_Py_GetBaseCodeUnit.exit.sink.split:              ; preds = %46, %13, %9
  %.sink1 = phi i64 [ %10, %9 ], [ %22, %13 ], [ %47, %46 ]
  %50 = getelementptr [256 x i8], ptr @_PyOpcode_Deopt, i64 0, i64 %.sink1
  %51 = load i8, ptr %50, align 1, !tbaa !33
  br label %_Py_GetBaseCodeUnit.exit

_Py_GetBaseCodeUnit.exit:                         ; preds = %_Py_GetBaseCodeUnit.exit.sink.split, %46
  %.sroa.0.0.i = phi i8 [ %49, %46 ], [ %51, %_Py_GetBaseCodeUnit.exit.sink.split ]
  %52 = zext i8 %.sroa.0.0.i to i64
  %53 = getelementptr [256 x i8], ptr @_PyOpcode_Caches, i64 0, i64 %52
  %54 = load i8, ptr %53, align 1, !tbaa !33
  %55 = zext i8 %54 to i32
  %56 = add nuw nsw i32 %55, 1
  ret i32 %56
}